; Function Attrs: mustprogress nounwind uwtable
define dso_local void @_ZN4llvm11ValueMapper19remapDbgRecordRangeEPNS_6ModuleENS_14iterator_rangeINS_14ilist_iteratorINS_12ilist_detail12node_optionsINS_9DbgRecordELb0ELb0EvLb0EvEELb0ELb0EEEEE(ptr nocapture noundef nonnull readonly align 8 dereferenceable(8) %0, ptr nocapture noundef readnone %1, ptr %2, ptr readnone %3) local_unnamed_addr #1 align 2 {
  %.not10 = icmp eq ptr %2, %3
  br i1 %.not10, label %._crit_edge, label %.lr.ph

.lr.ph:                                           ; preds = %4, %.lr.ph
  %.sroa.06.011 = phi ptr [ %7, %.lr.ph ], [ %2, %4 ]
  %5 = load ptr, ptr %0, align 8
  tail call fastcc void @_ZN12_GLOBAL__N_16Mapper14remapDbgRecordERN4llvm9DbgRecordE(ptr noundef nonnull align 8 dereferenceable(360) %5, ptr noundef nonnull align 8 dereferenceable(33) %.sroa.06.011)
  tail call fastcc void @_ZN12_GLOBAL__N_114FlushingMapperD2Ev(ptr nonnull %5) #16
  %6 = getelementptr inbounds nuw i8, ptr %.sroa.06.011, i64 8
  %7 = load ptr, ptr %6, align 8
  %.not = icmp eq ptr %7, %3
  br i1 %.not, label %._crit_edge, label %.lr.ph

._crit_edge:                                      ; preds = %.lr.ph, %4
  ret void
}